; ModuleID = 'bench/gromacs/original/pme_pp_comm_gpu_impl.cpp.ll'
source_filename = "bench/gromacs/original/pme_pp_comm_gpu_impl.cpp.ll"
target datalayout = "e-m:e-p270:32:32-p271:32:32-p272:64:64-i64:64-i128:128-f80:128-n8:16:32:64-S128"
target triple = "x86_64-pc-linux-gnu"

@_ZN3gmx12PmePpCommGpuC1EP10tmpi_comm_iPSt6vectorINS_11BasicVectorIfEENS_9AllocatorIS5_NS_20HostAllocationPolicyEEEERK13DeviceContextRK12DeviceStreamb = unnamed_addr alias void (ptr, ptr, i32, ptr, ptr, ptr, i1), ptr @_ZN3gmx12PmePpCommGpuC2EP10tmpi_comm_iPSt6vectorINS_11BasicVectorIfEENS_9AllocatorIS5_NS_20HostAllocationPolicyEEEERK13DeviceContextRK12DeviceStreamb
@_ZN3gmx12PmePpCommGpuD1Ev = unnamed_addr alias void (ptr), ptr @_ZN3gmx12PmePpCommGpuD2Ev

; Function Attrs: mustprogress nofree norecurse nosync nounwind willreturn memory(argmem: write) uwtable
define void @_ZN3gmx12PmePpCommGpuC2EP10tmpi_comm_iPSt6vectorINS_11BasicVectorIfEENS_9AllocatorIS5_NS_20HostAllocationPolicyEEEERK13DeviceContextRK12DeviceStreamb(ptr nocapture noundef nonnull writeonly align 8 dereferenceable(8) %0, ptr nocapture readnone %1, i32 %2, ptr nocapture readnone %3, ptr nocapture nonnull readnone align 1 %4, ptr nocapture nonnull readnone align 1 %5, i1 zeroext %6) unnamed_addr #0 align 2 personality ptr @__gxx_personality_v0 {
  store ptr null, ptr %0, align 8
  ret void
}

declare i32 @__gxx_personality_v0(...)

; Function Attrs: mustprogress nounwind uwtable
define void @_ZN3gmx12PmePpCommGpuD2Ev(ptr nocapture noundef nonnull align 8 dereferenceable(8) %0) unnamed_addr #1 align 2 personality ptr @__gxx_personality_v0 {
  %2 = load ptr, ptr %0, align 8
  %.not.i = icmp eq ptr %2, null
  br i1 %.not.i, label %_ZNSt10unique_ptrIN3gmx12PmePpCommGpu4ImplESt14default_deleteIS2_EED2Ev.exit, label %_ZNKSt14default_deleteIN3gmx12PmePpCommGpu4ImplEEclEPS2_.exit.i

_ZNKSt14default_deleteIN3gmx12PmePpCommGpu4ImplEEclEPS2_.exit.i: ; preds = %1
  tail call void @_ZdlPv(ptr noundef nonnull %2) #4
  br label %_ZNSt10unique_ptrIN3gmx12PmePpCommGpu4ImplESt14default_deleteIS2_EED2Ev.exit

_ZNSt10unique_ptrIN3gmx12PmePpCommGpu4ImplESt14default_deleteIS2_EED2Ev.exit: ; preds = %1, %_ZNKSt14default_deleteIN3gmx12PmePpCommGpu4ImplEEclEPS2_.exit.i
  store ptr null, ptr %0, align 8
  ret void
}

; Function Attrs: nobuiltin nounwind
declare void @_ZdlPv(ptr noundef) local_unnamed_addr #2

; Function Attrs: mustprogress nofree norecurse nosync nounwind willreturn memory(none) uwtable
define void @_ZN3gmx12PmePpCommGpu6reinitEi(ptr nocapture noundef nonnull readnone align 8 dereferenceable(8) %0, i32 noundef %1) local_unnamed_addr #3 align 2 {
  ret void
}

; Function Attrs: mustprogress nofree norecurse nosync nounwind willreturn memory(none) uwtable
define void @_ZN3gmx12PmePpCommGpu19receiveForceFromPmeEPNS_11BasicVectorIfEEib(ptr nocapture noundef nonnull readnone align 8 dereferenceable(8) %0, ptr nocapture noundef readnone %1, i32 noundef %2, i1 noundef zeroext %3) local_unnamed_addr #3 align 2 {
  ret void
}

; Function Attrs: mustprogress nofree norecurse nosync nounwind willreturn memory(none) uwtable
define void @_ZN3gmx12PmePpCommGpu27sendCoordinatesToPmeFromGpuEPviP20GpuEventSynchronizer(ptr nocapture noundef nonnull readnone align 8 dereferenceable(8) %0, ptr nocapture noundef readnone %1, i32 noundef %2, ptr nocapture noundef readnone %3) local_unnamed_addr #3 align 2 {
  ret void
}

; Function Attrs: mustprogress nofree norecurse nosync nounwind willreturn memory(none) uwtable
define void @_ZN3gmx12PmePpCommGpu27sendCoordinatesToPmeFromCpuEPNS_11BasicVectorIfEEi(ptr nocapture noundef nonnull readnone align 8 dereferenceable(8) %0, ptr nocapture noundef readnone %1, i32 noundef %2) local_unnamed_addr #3 align 2 {
  ret void
}

; Function Attrs: mustprogress nofree norecurse nosync nounwind willreturn memory(none) uwtable
define noalias noundef ptr @_ZN3gmx12PmePpCommGpu21getGpuForceStagingPtrEv(ptr nocapture noundef nonnull readnone align 8 dereferenceable(8) %0) local_unnamed_addr #3 align 2 {
  ret ptr null
}

; Function Attrs: mustprogress nofree norecurse nosync nounwind willreturn memory(none) uwtable
define noalias noundef ptr @_ZN3gmx12PmePpCommGpu26getForcesReadySynchronizerEv(ptr nocapture noundef nonnull readnone align 8 dereferenceable(8) %0) local_unnamed_addr #3 align 2 {
  ret ptr null
}

; Function Attrs: mustprogress nofree norecurse nosync nounwind willreturn memory(none) uwtable
define noalias noundef ptr @_ZN3gmx12PmePpCommGpu19getGpuForcesSyncObjEv(ptr nocapture noundef nonnull readnone align 8 dereferenceable(8) %0) local_unnamed_addr #3 align 2 {
  ret ptr null
}


!llvm.module.flags = !{!0, !1, !2, !3, !4}

!0 = !{i32 1, !"wchar_size", i32 4}
!1 = !{i32 7, !"openmp", i32 51}
!2 = !{i32 8, !"PIC Level", i32 2}
!3 = !{i32 7, !"uwtable", i32 2}
!4 = !{i32 7, !"frame-pointer", i32 2}
